; Function Attrs: mustprogress noreturn nounwind uwtable
define hidden void @_Z23report_vm_out_of_memoryPKcim11VMErrorTypeS0_z(ptr noundef %0, i32 noundef %1, i64 noundef %2, i32 noundef %3, ptr noundef %4, ...) local_unnamed_addr #2 {
  %6 = alloca [1 x %struct.__va_list_tag], align 16
  call void @llvm.va_start.p0(ptr nonnull %6)
  call fastcc void @_ZL25print_error_for_unit_testPKcS0_P13__va_list_tag(ptr noundef null, ptr noundef %4, ptr noundef nonnull %6)
  %7 = call align 8 ptr @llvm.threadlocal.address.p0(ptr align 8 @_ZN6Thread12_thr_currentE)
  %8 = load ptr, ptr %7, align 8
  call void @_ZN7VMError14report_and_dieEP6ThreadPKcim11VMErrorTypeS3_P13__va_list_tag(ptr noundef %8, ptr noundef %0, i32 noundef %1, i64 noundef %2, i32 noundef %3, ptr noundef %4, ptr noundef nonnull %6) #17
  unreachable
}